target datalayout = "e-m:e-p270:32:32-p271:32:32-p272:64:64-i64:64-i128:128-f80:128-n8:16:32:64-S128"
target triple = "x86_64-pc-linux-gnu"

%struct.Aig_ManPre_t_ = type { ptr, ptr, i32, ptr, ptr, ptr, ptr, ptr, ptr, ptr }
%struct.Vec_Ptr_t_ = type { i32, i32, ptr }
%struct.Vec_Int_t_ = type { i32, i32, ptr }
%struct.Aig_Man_t_ = type { ptr, ptr, ptr, ptr, ptr, ptr, ptr, %struct.Aig_Obj_t_, i32, i32, i32, i32, i32, i32, [7 x i32], i32, ptr, i32, ptr, i32, ptr, i32, i32, i32, ptr, i32, i32, i32, i32, i32, ptr, ptr, i32, ptr, ptr, i32, ptr, ptr, i32, i32, i32, ptr, ptr, ptr, ptr, ptr, ptr, ptr, ptr, ptr, ptr, ptr, ptr, ptr, ptr, i32, ptr, ptr, ptr, ptr, i32, i64, i64, i64, ptr, ptr }
%struct.Aig_Obj_t_ = type { %union.anon, ptr, ptr, i64, i32, i32, %union.anon.0 }
%union.anon = type { ptr }
%union.anon.0 = type { ptr }

; Function Attrs: inlinehint nounwind uwtable
define internal i32 @Vec_IntEntry(ptr noundef %0, i32 noundef %1) #5 {
  %3 = alloca ptr, align 8
  %4 = alloca i32, align 4
  store ptr %0, ptr %3, align 8, !tbaa !32
  store i32 %1, ptr %4, align 4, !tbaa !8
  %5 = load ptr, ptr %3, align 8, !tbaa !32
  %6 = getelementptr inbounds nuw %struct.Vec_Int_t_, ptr %5, i32 0, i32 2
  %7 = load ptr, ptr %6, align 8, !tbaa !37
  %8 = load i32, ptr %4, align 4, !tbaa !8
  %9 = sext i32 %8 to i64
  %10 = getelementptr inbounds i32, ptr %7, i64 %9
  %11 = load i32, ptr %10, align 4, !tbaa !8
  ret i32 %11
}

; Function Attrs: inlinehint nounwind uwtable
define internal i32 @Vec_IntSize(ptr noundef %0) #5 {
  %2 = alloca ptr, align 8
  store ptr %0, ptr %2, align 8, !tbaa !32
  %3 = load ptr, ptr %2, align 8, !tbaa !32
  %4 = getelementptr inbounds nuw %struct.Vec_Int_t_, ptr %3, i32 0, i32 1
  %5 = load i32, ptr %4, align 4, !tbaa !33
  ret i32 %5
}

; Function Attrs: inlinehint nounwind uwtable
define internal ptr @Vec_PtrEntry(ptr noundef %0, i32 noundef %1) #5 {
  %3 = alloca ptr, align 8
  %4 = alloca i32, align 4
  store ptr %0, ptr %3, align 8, !tbaa !27
  store i32 %1, ptr %4, align 4, !tbaa !8
  %5 = load ptr, ptr %3, align 8, !tbaa !27
  %6 = getelementptr inbounds nuw %struct.Vec_Ptr_t_, ptr %5, i32 0, i32 2
  %7 = load ptr, ptr %6, align 8, !tbaa !31
  %8 = load i32, ptr %4, align 4, !tbaa !8
  %9 = sext i32 %8 to i64
  %10 = getelementptr inbounds ptr, ptr %7, i64 %9
  %11 = load ptr, ptr %10, align 8, !tbaa !59
  ret ptr %11
}

; Function Attrs: inlinehint nounwind uwtable
define internal i32 @Aig_ManRegNum(ptr noundef %0) #5 {
  %2 = alloca ptr, align 8
  store ptr %0, ptr %2, align 8, !tbaa !3
  %3 = load ptr, ptr %2, align 8, !tbaa !3
  %4 = getelementptr inbounds nuw %struct.Aig_Man_t_, ptr %3, i32 0, i32 8
  %5 = load i32, ptr %4, align 8, !tbaa !44
  ret i32 %5
}

; Function Attrs: nounwind uwtable
define i32 @Aig_ManRegFindSeed(ptr noundef %0) #0 {
  %2 = alloca ptr, align 8
  %3 = alloca ptr, align 8
  %4 = alloca i32, align 4
  %5 = alloca i32, align 4
  %6 = alloca i32, align 4
  %7 = alloca i32, align 4
  %8 = alloca i32, align 4
  %9 = alloca i32, align 4
  store ptr %0, ptr %2, align 8, !tbaa !10
  call void @llvm.lifetime.start.p0(i64 8, ptr %3) #9
  call void @llvm.lifetime.start.p0(i64 4, ptr %4) #9
  call void @llvm.lifetime.start.p0(i64 4, ptr %5) #9
  call void @llvm.lifetime.start.p0(i64 4, ptr %6) #9
  call void @llvm.lifetime.start.p0(i64 4, ptr %7) #9
  store i32 -1, ptr %7, align 4, !tbaa !8
  call void @llvm.lifetime.start.p0(i64 4, ptr %8) #9
  call void @llvm.lifetime.start.p0(i64 4, ptr %9) #9
  store i32 -1, ptr %9, align 4, !tbaa !8
  store i32 0, ptr %4, align 4, !tbaa !8
  br label %10

10:                                               ; preds = %68, %1
  %11 = load i32, ptr %4, align 4, !tbaa !8
  %12 = load ptr, ptr %2, align 8, !tbaa !10
  %13 = getelementptr inbounds nuw %struct.Aig_ManPre_t_, ptr %12, i32 0, i32 0
  %14 = load ptr, ptr %13, align 8, !tbaa !12
  %15 = call i32 @Aig_ManRegNum(ptr noundef %14)
  %16 = icmp slt i32 %11, %15
  br i1 %16, label %17, label %71

17:                                               ; preds = %10
  %18 = load ptr, ptr %2, align 8, !tbaa !10
  %19 = getelementptr inbounds nuw %struct.Aig_ManPre_t_, ptr %18, i32 0, i32 4
  %20 = load ptr, ptr %19, align 8, !tbaa !25
  %21 = load i32, ptr %4, align 4, !tbaa !8
  %22 = sext i32 %21 to i64
  %23 = getelementptr inbounds i8, ptr %20, i64 %22
  %24 = load i8, ptr %23, align 1, !tbaa !56
  %25 = icmp ne i8 %24, 0
  br i1 %25, label %26, label %27

26:                                               ; preds = %17
  br label %68

27:                                               ; preds = %17
  store i32 0, ptr %8, align 4, !tbaa !8
  %28 = load ptr, ptr %2, align 8, !tbaa !10
  %29 = getelementptr inbounds nuw %struct.Aig_ManPre_t_, ptr %28, i32 0, i32 1
  %30 = load ptr, ptr %29, align 8, !tbaa !18
  %31 = load i32, ptr %4, align 4, !tbaa !8
  %32 = call ptr @Vec_PtrEntry(ptr noundef %30, i32 noundef %31)
  store ptr %32, ptr %3, align 8, !tbaa !32
  store i32 0, ptr %5, align 4, !tbaa !8
  br label %33

33:                                               ; preds = %57, %27
  %34 = load i32, ptr %5, align 4, !tbaa !8
  %35 = load ptr, ptr %3, align 8, !tbaa !32
  %36 = call i32 @Vec_IntSize(ptr noundef %35)
  %37 = icmp slt i32 %34, %36
  br i1 %37, label %38, label %42

38:                                               ; preds = %33
  %39 = load ptr, ptr %3, align 8, !tbaa !32
  %40 = load i32, ptr %5, align 4, !tbaa !8
  %41 = call i32 @Vec_IntEntry(ptr noundef %39, i32 noundef %40)
  store i32 %41, ptr %6, align 4, !tbaa !8
  br label %42

42:                                               ; preds = %38, %33
  %43 = phi i1 [ false, %33 ], [ true, %38 ]
  br i1 %43, label %44, label %60

44:                                               ; preds = %42
  %45 = load ptr, ptr %2, align 8, !tbaa !10
  %46 = getelementptr inbounds nuw %struct.Aig_ManPre_t_, ptr %45, i32 0, i32 4
  %47 = load ptr, ptr %46, align 8, !tbaa !25
  %48 = load i32, ptr %6, align 4, !tbaa !8
  %49 = sext i32 %48 to i64
  %50 = getelementptr inbounds i8, ptr %47, i64 %49
  %51 = load i8, ptr %50, align 1, !tbaa !56
  %52 = icmp ne i8 %51, 0
  %53 = xor i1 %52, true
  %54 = zext i1 %53 to i32
  %55 = load i32, ptr %8, align 4, !tbaa !8
  %56 = add nsw i32 %55, %54
  store i32 %56, ptr %8, align 4, !tbaa !8
  br label %57

57:                                               ; preds = %44
  %58 = load i32, ptr %5, align 4, !tbaa !8
  %59 = add nsw i32 %58, 1
  store i32 %59, ptr %5, align 4, !tbaa !8
  br label %33, !llvm.loop !57

60:                                               ; preds = %42
  %61 = load i32, ptr %9, align 4, !tbaa !8
  %62 = load i32, ptr %8, align 4, !tbaa !8
  %63 = icmp slt i32 %61, %62
  br i1 %63, label %64, label %67

64:                                               ; preds = %60
  %65 = load i32, ptr %8, align 4, !tbaa !8
  store i32 %65, ptr %9, align 4, !tbaa !8
  %66 = load i32, ptr %4, align 4, !tbaa !8
  store i32 %66, ptr %7, align 4, !tbaa !8
  br label %67

67:                                               ; preds = %64, %60
  br label %68

68:                                               ; preds = %67, %26
  %69 = load i32, ptr %4, align 4, !tbaa !8
  %70 = add nsw i32 %69, 1
  store i32 %70, ptr %4, align 4, !tbaa !8
  br label %10, !llvm.loop !58

71:                                               ; preds = %10
  %72 = load i32, ptr %7, align 4, !tbaa !8
  call void @llvm.lifetime.end.p0(i64 4, ptr %9) #9
  call void @llvm.lifetime.end.p0(i64 4, ptr %8) #9
  call void @llvm.lifetime.end.p0(i64 4, ptr %7) #9
  call void @llvm.lifetime.end.p0(i64 4, ptr %6) #9
  call void @llvm.lifetime.end.p0(i64 4, ptr %5) #9
  call void @llvm.lifetime.end.p0(i64 4, ptr %4) #9
  call void @llvm.lifetime.end.p0(i64 8, ptr %3) #9
  ret i32 %72
}