; Function Attrs: nofree norecurse nosync nounwind memory(read, inaccessiblemem: none) uwtable
define i32 @Aig_ManRegFindSeed(ptr noundef readonly captures(none) %0) local_unnamed_addr #5 {
  %2 = load ptr, ptr %0, align 8, !tbaa !3
  %3 = getelementptr i8, ptr %2, i64 104
  %.val = load i32, ptr %3, align 8, !tbaa !35
  %4 = icmp sgt i32 %.val, 0
  br i1 %4, label %.lr.ph34, label %._crit_edge

.lr.ph34:                                         ; preds = %1
  %5 = getelementptr inbounds nuw i8, ptr %0, i64 32
  %6 = load ptr, ptr %5, align 8, !tbaa !44
  %7 = getelementptr inbounds nuw i8, ptr %0, i64 8
  %wide.trip.count40 = zext nneg i32 %.val to i64
  br label %8

8:                                                ; preds = %.lr.ph34, %29
  %indvars.iv37 = phi i64 [ 0, %.lr.ph34 ], [ %indvars.iv.next38, %29 ]
  %.033 = phi i32 [ -1, %.lr.ph34 ], [ %.1, %29 ]
  %.02032 = phi i32 [ -1, %.lr.ph34 ], [ %.121, %29 ]
  %9 = getelementptr inbounds nuw i8, ptr %6, i64 %indvars.iv37
  %10 = load i8, ptr %9, align 1, !tbaa !52
  %.not = icmp eq i8 %10, 0
  br i1 %.not, label %11, label %29

11:                                               ; preds = %8
  %12 = load ptr, ptr %7, align 8, !tbaa !14
  %13 = getelementptr i8, ptr %12, i64 8
  %.val26 = load ptr, ptr %13, align 8, !tbaa !19
  %14 = getelementptr inbounds nuw ptr, ptr %.val26, i64 %indvars.iv37
  %15 = load ptr, ptr %14, align 8, !tbaa !49
  %16 = getelementptr i8, ptr %15, i64 4
  %.val27 = load i32, ptr %16, align 4, !tbaa !21
  %17 = icmp sgt i32 %.val27, 0
  br i1 %17, label %.lr.ph, label %.critedge

.lr.ph:                                           ; preds = %11
  %18 = getelementptr i8, ptr %15, i64 8
  %.val28 = load ptr, ptr %18, align 8, !tbaa !25
  %wide.trip.count = zext nneg i32 %.val27 to i64
  br label %19

19:                                               ; preds = %.lr.ph, %19
  %indvars.iv = phi i64 [ 0, %.lr.ph ], [ %indvars.iv.next, %19 ]
  %.01930 = phi i32 [ 0, %.lr.ph ], [ %26, %19 ]
  %20 = getelementptr inbounds nuw i32, ptr %.val28, i64 %indvars.iv
  %21 = load i32, ptr %20, align 4, !tbaa !53
  %22 = sext i32 %21 to i64
  %23 = getelementptr inbounds i8, ptr %6, i64 %22
  %24 = load i8, ptr %23, align 1, !tbaa !52
  %.not24 = icmp eq i8 %24, 0
  %25 = zext i1 %.not24 to i32
  %26 = add nuw nsw i32 %.01930, %25
  %indvars.iv.next = add nuw nsw i64 %indvars.iv, 1
  %exitcond.not = icmp eq i64 %indvars.iv.next, %wide.trip.count
  br i1 %exitcond.not, label %.critedge, label %19, !llvm.loop !54

.critedge:                                        ; preds = %19, %11
  %.019.lcssa = phi i32 [ 0, %11 ], [ %26, %19 ]
  %27 = icmp slt i32 %.033, %.019.lcssa
  %28 = trunc nuw nsw i64 %indvars.iv37 to i32
  %spec.select = select i1 %27, i32 %28, i32 %.02032
  %spec.select25 = tail call i32 @llvm.smax.i32(i32 %.033, i32 %.019.lcssa)
  br label %29

29:                                               ; preds = %.critedge, %8
  %.121 = phi i32 [ %.02032, %8 ], [ %spec.select, %.critedge ]
  %.1 = phi i32 [ %.033, %8 ], [ %spec.select25, %.critedge ]
  %indvars.iv.next38 = add nuw nsw i64 %indvars.iv37, 1
  %exitcond41.not = icmp eq i64 %indvars.iv.next38, %wide.trip.count40
  br i1 %exitcond41.not, label %._crit_edge, label %8, !llvm.loop !55

._crit_edge:                                      ; preds = %29, %1
  %.020.lcssa = phi i32 [ -1, %1 ], [ %.121, %29 ]
  ret i32 %.020.lcssa
}